target datalayout = "e-m:e-p270:32:32-p271:32:32-p272:64:64-i64:64-i128:128-f80:128-n8:16:32:64-S128"
target triple = "x86_64-pc-linux-gnu"

%struct._proto_node = type { ptr, ptr, ptr, ptr, ptr, ptr, ptr }
%struct.field_info = type { ptr, i32, i32, i32, i32, i32, i32, ptr, ptr, ptr, i32, i32 }

@hf_oran_reserved_4bits = internal global i32 0, align 4
@hf_oran_reserved_last_4bits = internal global i32 0, align 4
@hf_oran_blockScaler = internal global i32 0, align 4
@hf_oran_compBitWidth = internal global i32 0, align 4
@hf_oran_compShift = internal global i32 0, align 4
@hf_oran_udCompHdrMeth_pref = internal global i32 0, align 4
@hf_oran_udCompParam = internal global i32 0, align 4
@hf_oran_sReSMask = internal global i32 0, align 4
@hf_oran_exponent = internal global i32 0, align 4
@ett_oran_udcompparam = internal global i32 0, align 4
@ett_oran_sresmask = internal global i32 0, align 4
@.str.1165 = private unnamed_addr constant [1 x i8] zeroinitializer, align 1
@.str.1179 = private unnamed_addr constant [12 x i8] c"   (%u REs)\00", align 1
@.str.1182 = private unnamed_addr constant [10 x i8] c" (%u REs)\00", align 1
@.str.1197 = private unnamed_addr constant [14 x i8] c"sinrCompParam\00", align 1
@.str.1198 = private unnamed_addr constant [12 x i8] c"udCompParam\00", align 1
@.str.1199 = private unnamed_addr constant [15 x i8] c" (Exponent=%u)\00", align 1
@.str.1200 = private unnamed_addr constant [13 x i8] c"   (%2u REs)\00", align 1
@.str.1201 = private unnamed_addr constant [23 x i8] c" (exponent=%u, %u REs)\00", align 1

; Function Attrs: inlinehint nounwind null_pointer_is_valid sspstrong uwtable
define internal void @proto_item_set_generated(ptr noundef %0) #5 {
  %2 = alloca ptr, align 8
  store ptr %0, ptr %2, align 8
  %3 = load ptr, ptr %2, align 8
  %4 = icmp ne ptr %3, null
  br i1 %4, label %5, label %24

5:                                                ; preds = %1
  br label %6

6:                                                ; preds = %5
  %7 = load ptr, ptr %2, align 8
  %8 = getelementptr inbounds nuw %struct._proto_node, ptr %7, i32 0, i32 5
  %9 = load ptr, ptr %8, align 8
  %10 = icmp ne ptr %9, null
  br i1 %10, label %11, label %22

11:                                               ; preds = %6
  %12 = load ptr, ptr %2, align 8
  %13 = getelementptr inbounds nuw %struct._proto_node, ptr %12, i32 0, i32 5
  %14 = load ptr, ptr %13, align 8
  %15 = getelementptr inbounds nuw %struct.field_info, ptr %14, i32 0, i32 6
  %16 = load i32, ptr %15, align 4
  %17 = or i32 %16, 2
  %18 = load ptr, ptr %2, align 8
  %19 = getelementptr inbounds nuw %struct._proto_node, ptr %18, i32 0, i32 5
  %20 = load ptr, ptr %19, align 8
  %21 = getelementptr inbounds nuw %struct.field_info, ptr %20, i32 0, i32 6
  store i32 %17, ptr %21, align 4
  br label %22

22:                                               ; preds = %11, %6
  br label %23

23:                                               ; preds = %22
  br label %24

24:                                               ; preds = %23, %1
  ret void
}

; Function Attrs: null_pointer_is_valid sspstrong uwtable
define internal i32 @dissect_udcompparam(ptr noundef %0, ptr noundef %1, ptr noundef %2, i32 noundef %3, i32 noundef %4, ptr noundef %5, ptr noundef %6, i1 noundef zeroext %7) #0 {
  %9 = alloca i32, align 4
  %10 = alloca ptr, align 8
  %11 = alloca ptr, align 8
  %12 = alloca ptr, align 8
  %13 = alloca i32, align 4
  %14 = alloca i32, align 4
  %15 = alloca ptr, align 8
  %16 = alloca ptr, align 8
  %17 = alloca i8, align 1
  %18 = alloca i32, align 4
  %19 = alloca ptr, align 8
  %20 = alloca ptr, align 8
  %21 = alloca ptr, align 8
  %22 = alloca i32, align 4
  %23 = alloca i64, align 8
  %24 = alloca ptr, align 8
  %25 = alloca i32, align 4
  %26 = alloca i32, align 4
  %27 = alloca ptr, align 8
  %28 = alloca i32, align 4
  %29 = alloca i32, align 4
  store ptr %0, ptr %10, align 8
  store ptr %1, ptr %11, align 8
  store ptr %2, ptr %12, align 8
  store i32 %3, ptr %13, align 4
  store i32 %4, ptr %14, align 4
  store ptr %5, ptr %15, align 8
  store ptr %6, ptr %16, align 8
  %30 = zext i1 %7 to i8
  store i8 %30, ptr %17, align 1
  %31 = load i8, ptr %17, align 1, !range !8, !noundef !9
  %32 = trunc i8 %31 to i1
  br i1 %32, label %33, label %38

33:                                               ; preds = %8
  %34 = load i32, ptr %14, align 4
  %35 = icmp ne i32 %34, 1
  br i1 %35, label %36, label %38

36:                                               ; preds = %33
  %37 = load i32, ptr %13, align 4
  store i32 %37, ptr %9, align 4
  br label %210

38:                                               ; preds = %33, %8
  %39 = load i32, ptr %14, align 4
  %40 = icmp eq i32 %39, 0
  br i1 %40, label %47, label %41

41:                                               ; preds = %38
  %42 = load i32, ptr %14, align 4
  %43 = icmp eq i32 %42, 4
  br i1 %43, label %47, label %44

44:                                               ; preds = %41
  %45 = load i32, ptr %14, align 4
  %46 = icmp eq i32 %45, 8
  br i1 %46, label %47, label %49

47:                                               ; preds = %44, %41, %38
  %48 = load i32, ptr %13, align 4
  store i32 %48, ptr %9, align 4
  br label %210

49:                                               ; preds = %44
  call void @llvm.lifetime.start.p0(i64 4, ptr %18) #12
  %50 = load i32, ptr %13, align 4
  store i32 %50, ptr %18, align 4
  call void @llvm.lifetime.start.p0(i64 8, ptr %19) #12
  %51 = load ptr, ptr %12, align 8
  %52 = load i32, ptr @hf_oran_udCompParam, align 4
  %53 = load ptr, ptr %10, align 8
  %54 = load i32, ptr %13, align 4
  %55 = load i8, ptr %17, align 1, !range !8, !noundef !9
  %56 = trunc i8 %55 to i1
  %57 = select i1 %56, ptr @.str.1197, ptr @.str.1198
  %58 = call ptr (ptr, i32, ptr, i32, i32, ptr, ptr, ...) @proto_tree_add_string_format(ptr noundef %51, i32 noundef %52, ptr noundef %53, i32 noundef %54, i32 noundef 1, ptr noundef @.str.1165, ptr noundef %57)
  store ptr %58, ptr %19, align 8
  call void @llvm.lifetime.start.p0(i64 8, ptr %20) #12
  %59 = load ptr, ptr %19, align 8
  %60 = load i32, ptr @ett_oran_udcompparam, align 4
  %61 = call ptr @proto_item_add_subtree(ptr noundef %59, i32 noundef %60)
  store ptr %61, ptr %20, align 8
  call void @llvm.lifetime.start.p0(i64 8, ptr %21) #12
  %62 = load ptr, ptr %20, align 8
  %63 = load i32, ptr @hf_oran_udCompHdrMeth_pref, align 4
  %64 = load ptr, ptr %10, align 8
  %65 = load i32, ptr %14, align 4
  %66 = call ptr @proto_tree_add_uint(ptr noundef %62, i32 noundef %63, ptr noundef %64, i32 noundef 0, i32 noundef 0, i32 noundef %65)
  store ptr %66, ptr %21, align 8
  %67 = load ptr, ptr %21, align 8
  call void @proto_item_set_generated(ptr noundef %67)
  call void @llvm.lifetime.start.p0(i64 4, ptr %22) #12
  call void @llvm.lifetime.start.p0(i64 8, ptr %23) #12
  %68 = load i32, ptr %14, align 4
  switch i32 %68, label %203 [
    i32 1, label %69
    i32 7, label %69
    i32 2, label %86
    i32 3, label %94
    i32 5, label %107
    i32 6, label %157
  ]

69:                                               ; preds = %49, %49
  %70 = load ptr, ptr %20, align 8
  %71 = load i32, ptr @hf_oran_reserved_4bits, align 4
  %72 = load ptr, ptr %10, align 8
  %73 = load i32, ptr %13, align 4
  %74 = call ptr @proto_tree_add_item(ptr noundef %70, i32 noundef %71, ptr noundef %72, i32 noundef %73, i32 noundef 1, i32 noundef 0)
  %75 = load ptr, ptr %20, align 8
  %76 = load i32, ptr @hf_oran_exponent, align 4
  %77 = load ptr, ptr %10, align 8
  %78 = load i32, ptr %13, align 4
  %79 = call ptr @proto_tree_add_item_ret_uint(ptr noundef %75, i32 noundef %76, ptr noundef %77, i32 noundef %78, i32 noundef 1, i32 noundef 0, ptr noundef %22)
  %80 = load i32, ptr %22, align 4
  %81 = load ptr, ptr %15, align 8
  store i32 %80, ptr %81, align 4
  %82 = load ptr, ptr %19, align 8
  %83 = load i32, ptr %22, align 4
  call void (ptr, ptr, ...) @proto_item_append_text(ptr noundef %82, ptr noundef @.str.1199, i32 noundef %83)
  %84 = load i32, ptr %13, align 4
  %85 = add i32 %84, 1
  store i32 %85, ptr %13, align 4
  br label %204

86:                                               ; preds = %49
  %87 = load ptr, ptr %20, align 8
  %88 = load i32, ptr @hf_oran_blockScaler, align 4
  %89 = load ptr, ptr %10, align 8
  %90 = load i32, ptr %13, align 4
  %91 = call ptr @proto_tree_add_item(ptr noundef %87, i32 noundef %88, ptr noundef %89, i32 noundef %90, i32 noundef 1, i32 noundef 0)
  %92 = load i32, ptr %13, align 4
  %93 = add i32 %92, 1
  store i32 %93, ptr %13, align 4
  br label %204

94:                                               ; preds = %49
  %95 = load ptr, ptr %20, align 8
  %96 = load i32, ptr @hf_oran_compBitWidth, align 4
  %97 = load ptr, ptr %10, align 8
  %98 = load i32, ptr %13, align 4
  %99 = call ptr @proto_tree_add_item(ptr noundef %95, i32 noundef %96, ptr noundef %97, i32 noundef %98, i32 noundef 1, i32 noundef 0)
  %100 = load ptr, ptr %20, align 8
  %101 = load i32, ptr @hf_oran_compShift, align 4
  %102 = load ptr, ptr %10, align 8
  %103 = load i32, ptr %13, align 4
  %104 = call ptr @proto_tree_add_item(ptr noundef %100, i32 noundef %101, ptr noundef %102, i32 noundef %103, i32 noundef 1, i32 noundef 0)
  %105 = load i32, ptr %13, align 4
  %106 = add i32 %105, 1
  store i32 %106, ptr %13, align 4
  br label %204

107:                                              ; preds = %49
  call void @llvm.lifetime.start.p0(i64 8, ptr %24) #12
  %108 = load ptr, ptr %20, align 8
  %109 = load ptr, ptr %10, align 8
  %110 = load i32, ptr %13, align 4
  %111 = load i32, ptr @hf_oran_sReSMask, align 4
  %112 = load i32, ptr @ett_oran_sresmask, align 4
  %113 = call ptr @proto_tree_add_bitmask_ret_uint64(ptr noundef %108, ptr noundef %109, i32 noundef %110, i32 noundef %111, i32 noundef %112, ptr noundef @dissect_udcompparam.sres_mask_flags, i32 noundef 0, ptr noundef %23)
  store ptr %113, ptr %24, align 8
  %114 = load i64, ptr %23, align 8
  %115 = lshr i64 %114, 4
  %116 = and i64 %115, 3840
  %117 = load i64, ptr %23, align 8
  %118 = and i64 %117, 255
  %119 = or i64 %116, %118
  store i64 %119, ptr %23, align 8
  call void @llvm.lifetime.start.p0(i64 4, ptr %25) #12
  store i32 0, ptr %25, align 4
  call void @llvm.lifetime.start.p0(i64 4, ptr %26) #12
  store i32 0, ptr %26, align 4
  br label %120

120:                                              ; preds = %135, %107
  %121 = load i32, ptr %26, align 4
  %122 = icmp ult i32 %121, 12
  br i1 %122, label %124, label %123

123:                                              ; preds = %120
  call void @llvm.lifetime.end.p0(i64 4, ptr %26) #12
  br label %138

124:                                              ; preds = %120
  %125 = load i64, ptr %23, align 8
  %126 = load i32, ptr %26, align 4
  %127 = zext i32 %126 to i64
  %128 = lshr i64 %125, %127
  %129 = and i64 %128, 1
  %130 = icmp ne i64 %129, 0
  br i1 %130, label %131, label %134

131:                                              ; preds = %124
  %132 = load i32, ptr %25, align 4
  %133 = add i32 %132, 1
  store i32 %133, ptr %25, align 4
  br label %134

134:                                              ; preds = %131, %124
  br label %135

135:                                              ; preds = %134
  %136 = load i32, ptr %26, align 4
  %137 = add i32 %136, 1
  store i32 %137, ptr %26, align 4
  br label %120, !llvm.loop !27

138:                                              ; preds = %123
  %139 = load ptr, ptr %24, align 8
  %140 = load i32, ptr %25, align 4
  call void (ptr, ptr, ...) @proto_item_append_text(ptr noundef %139, ptr noundef @.str.1200, i32 noundef %140)
  %141 = load ptr, ptr %20, align 8
  %142 = load i32, ptr @hf_oran_exponent, align 4
  %143 = load ptr, ptr %10, align 8
  %144 = load i32, ptr %13, align 4
  %145 = call ptr @proto_tree_add_item_ret_uint(ptr noundef %141, i32 noundef %142, ptr noundef %143, i32 noundef %144, i32 noundef 1, i32 noundef 0, ptr noundef %22)
  %146 = load i64, ptr %23, align 8
  %147 = trunc i64 %146 to i16
  %148 = load ptr, ptr %16, align 8
  store i16 %147, ptr %148, align 2
  %149 = load i32, ptr %22, align 4
  %150 = load ptr, ptr %15, align 8
  store i32 %149, ptr %150, align 4
  %151 = load ptr, ptr %19, align 8
  %152 = load ptr, ptr %15, align 8
  %153 = load i32, ptr %152, align 4
  %154 = load i32, ptr %25, align 4
  call void (ptr, ptr, ...) @proto_item_append_text(ptr noundef %151, ptr noundef @.str.1201, i32 noundef %153, i32 noundef %154)
  %155 = load i32, ptr %13, align 4
  %156 = add i32 %155, 2
  store i32 %156, ptr %13, align 4
  call void @llvm.lifetime.end.p0(i64 4, ptr %25) #12
  call void @llvm.lifetime.end.p0(i64 8, ptr %24) #12
  br label %204

157:                                              ; preds = %49
  call void @llvm.lifetime.start.p0(i64 8, ptr %27) #12
  %158 = load ptr, ptr %20, align 8
  %159 = load ptr, ptr %10, align 8
  %160 = load i32, ptr %13, align 4
  %161 = load i32, ptr @hf_oran_sReSMask, align 4
  %162 = load i32, ptr @ett_oran_sresmask, align 4
  %163 = call ptr @proto_tree_add_bitmask_ret_uint64(ptr noundef %158, ptr noundef %159, i32 noundef %160, i32 noundef %161, i32 noundef %162, ptr noundef @dissect_udcompparam.sres_mask_flags, i32 noundef 0, ptr noundef %23)
  store ptr %163, ptr %27, align 8
  %164 = load i64, ptr %23, align 8
  %165 = lshr i64 %164, 4
  %166 = and i64 %165, 3840
  %167 = load i64, ptr %23, align 8
  %168 = and i64 %167, 255
  %169 = or i64 %166, %168
  store i64 %169, ptr %23, align 8
  call void @llvm.lifetime.start.p0(i64 4, ptr %28) #12
  store i32 0, ptr %28, align 4
  call void @llvm.lifetime.start.p0(i64 4, ptr %29) #12
  store i32 0, ptr %29, align 4
  br label %170

170:                                              ; preds = %185, %157
  %171 = load i32, ptr %29, align 4
  %172 = icmp ult i32 %171, 12
  br i1 %172, label %174, label %173

173:                                              ; preds = %170
  call void @llvm.lifetime.end.p0(i64 4, ptr %29) #12
  br label %188

174:                                              ; preds = %170
  %175 = load i64, ptr %23, align 8
  %176 = load i32, ptr %29, align 4
  %177 = zext i32 %176 to i64
  %178 = lshr i64 %175, %177
  %179 = and i64 %178, 1
  %180 = icmp ne i64 %179, 0
  br i1 %180, label %181, label %184

181:                                              ; preds = %174
  %182 = load i32, ptr %28, align 4
  %183 = add i32 %182, 1
  store i32 %183, ptr %28, align 4
  br label %184

184:                                              ; preds = %181, %174
  br label %185

185:                                              ; preds = %184
  %186 = load i32, ptr %29, align 4
  %187 = add i32 %186, 1
  store i32 %187, ptr %29, align 4
  br label %170, !llvm.loop !28

188:                                              ; preds = %173
  %189 = load ptr, ptr %27, align 8
  %190 = load i32, ptr %28, align 4
  call void (ptr, ptr, ...) @proto_item_append_text(ptr noundef %189, ptr noundef @.str.1179, i32 noundef %190)
  %191 = load ptr, ptr %20, align 8
  %192 = load i32, ptr @hf_oran_reserved_last_4bits, align 4
  %193 = load ptr, ptr %10, align 8
  %194 = load i32, ptr %13, align 4
  %195 = call ptr @proto_tree_add_item(ptr noundef %191, i32 noundef %192, ptr noundef %193, i32 noundef %194, i32 noundef 1, i32 noundef 0)
  %196 = load i64, ptr %23, align 8
  %197 = trunc i64 %196 to i16
  %198 = load ptr, ptr %16, align 8
  store i16 %197, ptr %198, align 2
  %199 = load ptr, ptr %19, align 8
  %200 = load i32, ptr %28, align 4
  call void (ptr, ptr, ...) @proto_item_append_text(ptr noundef %199, ptr noundef @.str.1182, i32 noundef %200)
  %201 = load i32, ptr %13, align 4
  %202 = add i32 %201, 2
  store i32 %202, ptr %13, align 4
  call void @llvm.lifetime.end.p0(i64 4, ptr %28) #12
  call void @llvm.lifetime.end.p0(i64 8, ptr %27) #12
  br label %204

203:                                              ; preds = %49
  br label %204

204:                                              ; preds = %203, %188, %138, %94, %86, %69
  %205 = load ptr, ptr %19, align 8
  %206 = load i32, ptr %13, align 4
  %207 = load i32, ptr %18, align 4
  %208 = sub i32 %206, %207
  call void @proto_item_set_len(ptr noundef %205, i32 noundef %208)
  %209 = load i32, ptr %13, align 4
  store i32 %209, ptr %9, align 4
  call void @llvm.lifetime.end.p0(i64 8, ptr %23) #12
  call void @llvm.lifetime.end.p0(i64 4, ptr %22) #12
  call void @llvm.lifetime.end.p0(i64 8, ptr %21) #12
  call void @llvm.lifetime.end.p0(i64 8, ptr %20) #12
  call void @llvm.lifetime.end.p0(i64 8, ptr %19) #12
  call void @llvm.lifetime.end.p0(i64 4, ptr %18) #12
  br label %210

210:                                              ; preds = %204, %47, %36
  %211 = load i32, ptr %9, align 4
  ret i32 %211
}