; Function Attrs: null_pointer_is_valid sspstrong uwtable
define internal fastcc noundef i32 @dissect_udcompparam(ptr noundef %0, ptr noundef %1, i32 noundef %2, i32 noundef %3, ptr noundef writeonly captures(none) %4, ptr noundef writeonly captures(none) %5, i1 noundef zeroext %6) unnamed_addr #0 {
  %8 = alloca i32, align 4
  %9 = alloca i64, align 8
  %10 = icmp ne i32 %3, 1
  %or.cond = and i1 %10, %6
  br i1 %or.cond, label %85, label %11

11:                                               ; preds = %7
  switch i32 %3, label %12 [
    i32 8, label %85
    i32 4, label %85
    i32 0, label %85
  ]

12:                                               ; preds = %11
  %13 = load i32, ptr @hf_oran_udCompParam, align 4
  %14 = select i1 %6, ptr @.str.1197, ptr @.str.1198
  %15 = tail call ptr (ptr, i32, ptr, i32, i32, ptr, ptr, ...) @proto_tree_add_string_format(ptr noundef %1, i32 noundef %13, ptr noundef %0, i32 noundef %2, i32 noundef 1, ptr noundef nonnull @.str.1165, ptr noundef nonnull %14)
  %16 = load i32, ptr @ett_oran_udcompparam, align 4
  %17 = tail call ptr @proto_item_add_subtree(ptr noundef %15, i32 noundef %16)
  %18 = load i32, ptr @hf_oran_udCompHdrMeth_pref, align 4
  %19 = tail call ptr @proto_tree_add_uint(ptr noundef %17, i32 noundef %18, ptr noundef %0, i32 noundef 0, i32 noundef 0, i32 noundef %3)
  %.not.i = icmp eq ptr %19, null
  br i1 %.not.i, label %proto_item_set_generated.exit, label %20

20:                                               ; preds = %12
  %21 = getelementptr inbounds nuw i8, ptr %19, i64 40
  %22 = load ptr, ptr %21, align 8
  %.not5.i = icmp eq ptr %22, null
  br i1 %.not5.i, label %proto_item_set_generated.exit, label %23

23:                                               ; preds = %20
  %24 = getelementptr inbounds nuw i8, ptr %22, i64 28
  %25 = load i32, ptr %24, align 4
  %26 = or i32 %25, 2
  store i32 %26, ptr %24, align 4
  br label %proto_item_set_generated.exit

proto_item_set_generated.exit:                    ; preds = %12, %20, %23
  call void @llvm.lifetime.start.p0(i64 4, ptr nonnull %8) #13
  call void @llvm.lifetime.start.p0(i64 8, ptr nonnull %9) #13
  switch i32 %3, label %83 [
    i32 1, label %27
    i32 7, label %27
    i32 2, label %34
    i32 3, label %38
    i32 5, label %44
    i32 6, label %64
  ]

27:                                               ; preds = %proto_item_set_generated.exit, %proto_item_set_generated.exit
  %28 = load i32, ptr @hf_oran_reserved_4bits, align 4
  %29 = tail call ptr @proto_tree_add_item(ptr noundef %17, i32 noundef %28, ptr noundef %0, i32 noundef %2, i32 noundef 1, i32 noundef 0)
  %30 = load i32, ptr @hf_oran_exponent, align 4
  %31 = call ptr @proto_tree_add_item_ret_uint(ptr noundef %17, i32 noundef %30, ptr noundef %0, i32 noundef %2, i32 noundef 1, i32 noundef 0, ptr noundef nonnull %8)
  %32 = load i32, ptr %8, align 4
  store i32 %32, ptr %4, align 4
  call void (ptr, ptr, ...) @proto_item_append_text(ptr noundef %15, ptr noundef nonnull @.str.1199, i32 noundef %32)
  %33 = add i32 %2, 1
  br label %83

34:                                               ; preds = %proto_item_set_generated.exit
  %35 = load i32, ptr @hf_oran_blockScaler, align 4
  %36 = tail call ptr @proto_tree_add_item(ptr noundef %17, i32 noundef %35, ptr noundef %0, i32 noundef %2, i32 noundef 1, i32 noundef 0)
  %37 = add i32 %2, 1
  br label %83

38:                                               ; preds = %proto_item_set_generated.exit
  %39 = load i32, ptr @hf_oran_compBitWidth, align 4
  %40 = tail call ptr @proto_tree_add_item(ptr noundef %17, i32 noundef %39, ptr noundef %0, i32 noundef %2, i32 noundef 1, i32 noundef 0)
  %41 = load i32, ptr @hf_oran_compShift, align 4
  %42 = tail call ptr @proto_tree_add_item(ptr noundef %17, i32 noundef %41, ptr noundef %0, i32 noundef %2, i32 noundef 1, i32 noundef 0)
  %43 = add i32 %2, 1
  br label %83

44:                                               ; preds = %proto_item_set_generated.exit
  %45 = load i32, ptr @hf_oran_sReSMask, align 4
  %46 = load i32, ptr @ett_oran_sresmask, align 4
  %47 = call ptr @proto_tree_add_bitmask_ret_uint64(ptr noundef %17, ptr noundef %0, i32 noundef %2, i32 noundef %45, i32 noundef %46, ptr noundef nonnull @dissect_udcompparam.sres_mask_flags, i32 noundef 0, ptr noundef nonnull %9)
  %48 = load i64, ptr %9, align 8
  %49 = lshr i64 %48, 4
  %50 = and i64 %49, 3840
  %51 = and i64 %48, 255
  %52 = or disjoint i64 %50, %51
  store i64 %52, ptr %9, align 8
  br label %60

53:                                               ; preds = %60
  call void (ptr, ptr, ...) @proto_item_append_text(ptr noundef %47, ptr noundef nonnull @.str.1200, i32 noundef %spec.select)
  %54 = load i32, ptr @hf_oran_exponent, align 4
  %55 = call ptr @proto_tree_add_item_ret_uint(ptr noundef %17, i32 noundef %54, ptr noundef %0, i32 noundef %2, i32 noundef 1, i32 noundef 0, ptr noundef nonnull %8)
  %56 = load i64, ptr %9, align 8
  %57 = trunc i64 %56 to i16
  store i16 %57, ptr %5, align 2
  %58 = load i32, ptr %8, align 4
  store i32 %58, ptr %4, align 4
  call void (ptr, ptr, ...) @proto_item_append_text(ptr noundef %15, ptr noundef nonnull @.str.1201, i32 noundef %58, i32 noundef %spec.select)
  %59 = add i32 %2, 2
  br label %83

60:                                               ; preds = %44, %60
  %indvars.iv6 = phi i64 [ 0, %44 ], [ %indvars.iv.next7, %60 ]
  %.0843 = phi i32 [ 0, %44 ], [ %spec.select, %60 ]
  %61 = lshr i64 %52, %indvars.iv6
  %62 = trunc nuw nsw i64 %61 to i32
  %63 = and i32 %62, 1
  %spec.select = add i32 %63, %.0843
  %indvars.iv.next7 = add nuw nsw i64 %indvars.iv6, 1
  %exitcond9.not = icmp eq i64 %indvars.iv.next7, 12
  br i1 %exitcond9.not, label %53, label %60, !llvm.loop !27

64:                                               ; preds = %proto_item_set_generated.exit
  %65 = load i32, ptr @hf_oran_sReSMask, align 4
  %66 = load i32, ptr @ett_oran_sresmask, align 4
  %67 = call ptr @proto_tree_add_bitmask_ret_uint64(ptr noundef %17, ptr noundef %0, i32 noundef %2, i32 noundef %65, i32 noundef %66, ptr noundef nonnull @dissect_udcompparam.sres_mask_flags, i32 noundef 0, ptr noundef nonnull %9)
  %68 = load i64, ptr %9, align 8
  %69 = lshr i64 %68, 4
  %70 = and i64 %69, 3840
  %71 = and i64 %68, 255
  %72 = or disjoint i64 %70, %71
  store i64 %72, ptr %9, align 8
  br label %79

73:                                               ; preds = %79
  call void (ptr, ptr, ...) @proto_item_append_text(ptr noundef %67, ptr noundef nonnull @.str.1179, i32 noundef %spec.select89)
  %74 = load i32, ptr @hf_oran_reserved_last_4bits, align 4
  %75 = call ptr @proto_tree_add_item(ptr noundef %17, i32 noundef %74, ptr noundef %0, i32 noundef %2, i32 noundef 1, i32 noundef 0)
  %76 = load i64, ptr %9, align 8
  %77 = trunc i64 %76 to i16
  store i16 %77, ptr %5, align 2
  call void (ptr, ptr, ...) @proto_item_append_text(ptr noundef %15, ptr noundef nonnull @.str.1182, i32 noundef %spec.select89)
  %78 = add i32 %2, 2
  br label %83

79:                                               ; preds = %64, %79
  %indvars.iv = phi i64 [ 0, %64 ], [ %indvars.iv.next, %79 ]
  %.0811 = phi i32 [ 0, %64 ], [ %spec.select89, %79 ]
  %80 = lshr i64 %72, %indvars.iv
  %81 = trunc nuw nsw i64 %80 to i32
  %82 = and i32 %81, 1
  %spec.select89 = add i32 %82, %.0811
  %indvars.iv.next = add nuw nsw i64 %indvars.iv, 1
  %exitcond.not = icmp eq i64 %indvars.iv.next, 12
  br i1 %exitcond.not, label %73, label %79, !llvm.loop !28

83:                                               ; preds = %proto_item_set_generated.exit, %73, %53, %38, %34, %27
  %.086 = phi i32 [ %2, %proto_item_set_generated.exit ], [ %78, %73 ], [ %59, %53 ], [ %43, %38 ], [ %37, %34 ], [ %33, %27 ]
  %84 = sub i32 %.086, %2
  call void @proto_item_set_len(ptr noundef %15, i32 noundef %84)
  call void @llvm.lifetime.end.p0(i64 8, ptr nonnull %9) #13
  call void @llvm.lifetime.end.p0(i64 4, ptr nonnull %8) #13
  br label %85

85:                                               ; preds = %11, %11, %11, %7, %83
  %.082 = phi i32 [ %.086, %83 ], [ %2, %7 ], [ %2, %11 ], [ %2, %11 ], [ %2, %11 ]
  ret i32 %.082
}